target datalayout = "e-m:e-p270:32:32-p271:32:32-p272:64:64-i64:64-i128:128-f80:128-n8:16:32:64-S128"
target triple = "x86_64-pc-linux-gnu"

@hf_afp_user_ID = internal global i32 0, align 4
@hf_afp_group_ID = internal global i32 0, align 4
@hf_afp_UUID = internal global i32 0, align 4
@hf_afp_user_bitmap = internal global i32 0, align 4
@ett_afp_user_bitmap = internal global i32 0, align 4
@afp_user_bitmaps = internal constant [4 x ptr] [ptr @hf_afp_user_bitmap_UID, ptr @hf_afp_user_bitmap_GID, ptr @hf_afp_user_bitmap_UUID, ptr null], align 16

; Function Attrs: null_pointer_is_valid sspstrong uwtable
define internal i32 @dissect_reply_afp_get_user_info(ptr noundef %0, ptr noundef %1, ptr noundef %2, i32 noundef %3) #1 {
  %5 = alloca ptr, align 8
  %6 = alloca ptr, align 8
  %7 = alloca ptr, align 8
  %8 = alloca i32, align 4
  %9 = alloca i16, align 2
  store ptr %0, ptr %5, align 8
  store ptr %1, ptr %6, align 8
  store ptr %2, ptr %7, align 8
  store i32 %3, ptr %8, align 4
  call void @llvm.lifetime.start.p0(i64 2, ptr %9) #8
  %10 = load ptr, ptr %7, align 8
  %11 = load ptr, ptr %5, align 8
  %12 = load i32, ptr %8, align 4
  %13 = load i32, ptr @hf_afp_user_bitmap, align 4
  %14 = load i32, ptr @ett_afp_user_bitmap, align 4
  %15 = call ptr @proto_tree_add_bitmask(ptr noundef %10, ptr noundef %11, i32 noundef %12, i32 noundef %13, i32 noundef %14, ptr noundef @afp_user_bitmaps, i32 noundef 0)
  %16 = load ptr, ptr %5, align 8
  %17 = load i32, ptr %8, align 4
  %18 = call zeroext i16 @tvb_get_ntohs(ptr noundef %16, i32 noundef %17)
  store i16 %18, ptr %9, align 2
  %19 = load i32, ptr %8, align 4
  %20 = add i32 %19, 2
  store i32 %20, ptr %8, align 4
  %21 = load i16, ptr %9, align 2
  %22 = zext i16 %21 to i32
  %23 = and i32 %22, 1
  %24 = icmp ne i32 %23, 0
  br i1 %24, label %25, label %33

25:                                               ; preds = %4
  %26 = load ptr, ptr %7, align 8
  %27 = load i32, ptr @hf_afp_user_ID, align 4
  %28 = load ptr, ptr %5, align 8
  %29 = load i32, ptr %8, align 4
  %30 = call ptr @proto_tree_add_item(ptr noundef %26, i32 noundef %27, ptr noundef %28, i32 noundef %29, i32 noundef 4, i32 noundef 0)
  %31 = load i32, ptr %8, align 4
  %32 = add i32 %31, 4
  store i32 %32, ptr %8, align 4
  br label %33

33:                                               ; preds = %25, %4
  %34 = load i16, ptr %9, align 2
  %35 = zext i16 %34 to i32
  %36 = and i32 %35, 2
  %37 = icmp ne i32 %36, 0
  br i1 %37, label %38, label %46

38:                                               ; preds = %33
  %39 = load ptr, ptr %7, align 8
  %40 = load i32, ptr @hf_afp_group_ID, align 4
  %41 = load ptr, ptr %5, align 8
  %42 = load i32, ptr %8, align 4
  %43 = call ptr @proto_tree_add_item(ptr noundef %39, i32 noundef %40, ptr noundef %41, i32 noundef %42, i32 noundef 4, i32 noundef 0)
  %44 = load i32, ptr %8, align 4
  %45 = add i32 %44, 4
  store i32 %45, ptr %8, align 4
  br label %46

46:                                               ; preds = %38, %33
  %47 = load i16, ptr %9, align 2
  %48 = zext i16 %47 to i32
  %49 = and i32 %48, 4
  %50 = icmp ne i32 %49, 0
  br i1 %50, label %51, label %59

51:                                               ; preds = %46
  %52 = load ptr, ptr %7, align 8
  %53 = load i32, ptr @hf_afp_UUID, align 4
  %54 = load ptr, ptr %5, align 8
  %55 = load i32, ptr %8, align 4
  %56 = call ptr @proto_tree_add_item(ptr noundef %52, i32 noundef %53, ptr noundef %54, i32 noundef %55, i32 noundef 16, i32 noundef 0)
  %57 = load i32, ptr %8, align 4
  %58 = add i32 %57, 16
  store i32 %58, ptr %8, align 4
  br label %59

59:                                               ; preds = %51, %46
  %60 = load i32, ptr %8, align 4
  call void @llvm.lifetime.end.p0(i64 2, ptr %9) #8
  ret i32 %60
}