; Function Attrs: null_pointer_is_valid sspstrong uwtable
define internal fastcc range(i32 2, 27) i32 @dissect_reply_afp_get_user_info(ptr noundef %0, ptr noundef %1) unnamed_addr #1 {
  %3 = load i32, ptr @hf_afp_user_bitmap, align 4
  %4 = load i32, ptr @ett_afp_user_bitmap, align 4
  %5 = tail call ptr @proto_tree_add_bitmask(ptr noundef %1, ptr noundef %0, i32 noundef 0, i32 noundef %3, i32 noundef %4, ptr noundef nonnull @afp_user_bitmaps, i32 noundef 0)
  %6 = tail call zeroext i16 @tvb_get_ntohs(ptr noundef %0, i32 noundef 0)
  %7 = zext i16 %6 to i32
  %8 = and i32 %7, 1
  %.not = icmp eq i32 %8, 0
  br i1 %.not, label %12, label %9

9:                                                ; preds = %2
  %10 = load i32, ptr @hf_afp_user_ID, align 4
  %11 = tail call ptr @proto_tree_add_item(ptr noundef %1, i32 noundef %10, ptr noundef %0, i32 noundef 2, i32 noundef 4, i32 noundef 0)
  br label %12

12:                                               ; preds = %9, %2
  %.0 = phi i32 [ 6, %9 ], [ 2, %2 ]
  %13 = and i32 %7, 2
  %.not21 = icmp eq i32 %13, 0
  br i1 %.not21, label %18, label %14

14:                                               ; preds = %12
  %15 = load i32, ptr @hf_afp_group_ID, align 4
  %16 = tail call ptr @proto_tree_add_item(ptr noundef %1, i32 noundef %15, ptr noundef %0, i32 noundef %.0, i32 noundef 4, i32 noundef 0)
  %17 = add nuw nsw i32 %.0, 4
  br label %18

18:                                               ; preds = %14, %12
  %.1 = phi i32 [ %17, %14 ], [ %.0, %12 ]
  %19 = and i32 %7, 4
  %.not22 = icmp eq i32 %19, 0
  br i1 %.not22, label %24, label %20

20:                                               ; preds = %18
  %21 = load i32, ptr @hf_afp_UUID, align 4
  %22 = tail call ptr @proto_tree_add_item(ptr noundef %1, i32 noundef %21, ptr noundef %0, i32 noundef %.1, i32 noundef 16, i32 noundef 0)
  %23 = add nuw nsw i32 %.1, 16
  br label %24

24:                                               ; preds = %20, %18
  %.2 = phi i32 [ %23, %20 ], [ %.1, %18 ]
  ret i32 %.2
}